target datalayout = "e-m:e-p270:32:32-p271:32:32-p272:64:64-i64:64-i128:128-f80:128-n8:16:32:64-S128"
target triple = "x86_64-pc-linux-gnu"

%struct.PJconsts = type { ptr, ptr, ptr, ptr, ptr, ptr, ptr, ptr, ptr, ptr, ptr, ptr, i32, ptr, ptr, ptr, ptr, ptr, ptr, ptr, ptr, double, double, double, double, double, double, double, double, double, double, double, double, double, double, double, double, double, double, double, double, double, double, i32, i32, i32, i32, i32, i32, i32, i32, i32, i32, i32, ptr, ptr, ptr, ptr, ptr, ptr, double, double, double, double, double, double, double, double, double, double, double, i32, [7 x double], i32, ptr, ptr, double, double, i32, [4 x i8], %"class.std::shared_ptr", i8, double, i8, %"class.std::__cxx11::basic_string", %"class.std::__cxx11::basic_string", %"class.std::__cxx11::basic_string", i8, %"class.std::vector", i32, %"class.std::vector.3", i32, i8, i8, i8, ptr }
%"class.std::shared_ptr" = type { %"class.std::__shared_ptr" }
%"class.std::__shared_ptr" = type { ptr, %"class.std::__shared_count" }
%"class.std::__shared_count" = type { ptr }
%"class.std::__cxx11::basic_string" = type { %"struct.std::__cxx11::basic_string<char>::_Alloc_hider", i64, %union.anon }
%"struct.std::__cxx11::basic_string<char>::_Alloc_hider" = type { ptr }
%union.anon = type { i64, [8 x i8] }
%"class.std::vector" = type { %"struct.std::_Vector_base" }
%"struct.std::_Vector_base" = type { %"struct.std::_Vector_base<osgeo::proj::operation::GridDescription, std::allocator<osgeo::proj::operation::GridDescription>>::_Vector_impl" }
%"struct.std::_Vector_base<osgeo::proj::operation::GridDescription, std::allocator<osgeo::proj::operation::GridDescription>>::_Vector_impl" = type { %"struct.std::_Vector_base<osgeo::proj::operation::GridDescription, std::allocator<osgeo::proj::operation::GridDescription>>::_Vector_impl_data" }
%"struct.std::_Vector_base<osgeo::proj::operation::GridDescription, std::allocator<osgeo::proj::operation::GridDescription>>::_Vector_impl_data" = type { ptr, ptr, ptr }
%"class.std::vector.3" = type { %"struct.std::_Vector_base.4" }
%"struct.std::_Vector_base.4" = type { %"struct.std::_Vector_base<PJCoordOperation, std::allocator<PJCoordOperation>>::_Vector_impl" }
%"struct.std::_Vector_base<PJCoordOperation, std::allocator<PJCoordOperation>>::_Vector_impl" = type { %"struct.std::_Vector_base<PJCoordOperation, std::allocator<PJCoordOperation>>::_Vector_impl_data" }
%"struct.std::_Vector_base<PJCoordOperation, std::allocator<PJCoordOperation>>::_Vector_impl_data" = type { ptr, ptr, ptr }
%"struct.(anonymous namespace)::pj_sconics_data" = type { double, double, double, double, double, double, i32 }
%struct.PJ_LP = type { double, double }
%struct.PJ_XY = type { double, double }

; Function Attrs: mustprogress nounwind uwtable
define internal { double, double } @_ZL17sconics_s_inverse5PJ_XYP8PJconsts(double %0, double %1, ptr noundef %2) #6 {
  %4 = alloca %struct.PJ_LP, align 8
  %5 = alloca %struct.PJ_XY, align 8
  %6 = alloca ptr, align 8
  %7 = alloca ptr, align 8
  %8 = alloca double, align 8
  %9 = getelementptr inbounds nuw { double, double }, ptr %5, i32 0, i32 0
  store double %0, ptr %9, align 8
  %10 = getelementptr inbounds nuw { double, double }, ptr %5, i32 0, i32 1
  store double %1, ptr %10, align 8
  store ptr %2, ptr %6, align 8, !tbaa !3
  call void @llvm.memset.p0.i64(ptr align 8 %4, i8 0, i64 16, i1 false)
  call void @llvm.lifetime.start.p0(i64 8, ptr %7) #8
  %11 = load ptr, ptr %6, align 8, !tbaa !3
  %12 = getelementptr inbounds nuw %struct.PJconsts, ptr %11, i32 0, i32 11
  %13 = load ptr, ptr %12, align 8, !tbaa !45
  store ptr %13, ptr %7, align 8, !tbaa !43
  call void @llvm.lifetime.start.p0(i64 8, ptr %8) #8
  %14 = load ptr, ptr %7, align 8, !tbaa !43
  %15 = getelementptr inbounds nuw %"struct.(anonymous namespace)::pj_sconics_data", ptr %14, i32 0, i32 2
  %16 = load double, ptr %15, align 8, !tbaa !54
  %17 = getelementptr inbounds nuw %struct.PJ_XY, ptr %5, i32 0, i32 1
  %18 = load double, ptr %17, align 8, !tbaa !65
  %19 = fsub double %16, %18
  %20 = getelementptr inbounds nuw %struct.PJ_XY, ptr %5, i32 0, i32 1
  store double %19, ptr %20, align 8, !tbaa !65
  %21 = getelementptr inbounds nuw %struct.PJ_XY, ptr %5, i32 0, i32 0
  %22 = load double, ptr %21, align 8, !tbaa !67
  %23 = getelementptr inbounds nuw %struct.PJ_XY, ptr %5, i32 0, i32 1
  %24 = load double, ptr %23, align 8, !tbaa !65
  %25 = call double @hypot(double noundef %22, double noundef %24) #8, !tbaa !48
  store double %25, ptr %8, align 8, !tbaa !51
  %26 = load ptr, ptr %7, align 8, !tbaa !43
  %27 = getelementptr inbounds nuw %"struct.(anonymous namespace)::pj_sconics_data", ptr %26, i32 0, i32 0
  %28 = load double, ptr %27, align 8, !tbaa !50
  %29 = fcmp olt double %28, 0.000000e+00
  br i1 %29, label %30, label %41

30:                                               ; preds = %3
  %31 = load double, ptr %8, align 8, !tbaa !51
  %32 = fneg double %31
  store double %32, ptr %8, align 8, !tbaa !51
  %33 = getelementptr inbounds nuw %struct.PJ_XY, ptr %5, i32 0, i32 0
  %34 = load double, ptr %33, align 8, !tbaa !67
  %35 = fneg double %34
  %36 = getelementptr inbounds nuw %struct.PJ_XY, ptr %5, i32 0, i32 0
  store double %35, ptr %36, align 8, !tbaa !67
  %37 = getelementptr inbounds nuw %struct.PJ_XY, ptr %5, i32 0, i32 1
  %38 = load double, ptr %37, align 8, !tbaa !65
  %39 = fneg double %38
  %40 = getelementptr inbounds nuw %struct.PJ_XY, ptr %5, i32 0, i32 1
  store double %39, ptr %40, align 8, !tbaa !65
  br label %41

41:                                               ; preds = %30, %3
  %42 = getelementptr inbounds nuw %struct.PJ_XY, ptr %5, i32 0, i32 0
  %43 = load double, ptr %42, align 8, !tbaa !67
  %44 = getelementptr inbounds nuw %struct.PJ_XY, ptr %5, i32 0, i32 1
  %45 = load double, ptr %44, align 8, !tbaa !65
  %46 = call double @atan2(double noundef %43, double noundef %45) #8, !tbaa !48
  %47 = load ptr, ptr %7, align 8, !tbaa !43
  %48 = getelementptr inbounds nuw %"struct.(anonymous namespace)::pj_sconics_data", ptr %47, i32 0, i32 0
  %49 = load double, ptr %48, align 8, !tbaa !50
  %50 = fdiv double %46, %49
  %51 = getelementptr inbounds nuw %struct.PJ_LP, ptr %4, i32 0, i32 0
  store double %50, ptr %51, align 8, !tbaa !68
  %52 = load ptr, ptr %7, align 8, !tbaa !43
  %53 = getelementptr inbounds nuw %"struct.(anonymous namespace)::pj_sconics_data", ptr %52, i32 0, i32 6
  %54 = load i32, ptr %53, align 8, !tbaa !46
  switch i32 %54, label %83 [
    i32 4, label %55
    i32 2, label %71
  ]

55:                                               ; preds = %41
  %56 = load ptr, ptr %7, align 8, !tbaa !43
  %57 = getelementptr inbounds nuw %"struct.(anonymous namespace)::pj_sconics_data", ptr %56, i32 0, i32 4
  %58 = load double, ptr %57, align 8, !tbaa !56
  %59 = load double, ptr %8, align 8, !tbaa !51
  %60 = load ptr, ptr %7, align 8, !tbaa !43
  %61 = getelementptr inbounds nuw %"struct.(anonymous namespace)::pj_sconics_data", ptr %60, i32 0, i32 5
  %62 = load double, ptr %61, align 8, !tbaa !55
  %63 = fdiv double %59, %62
  %64 = fsub double %58, %63
  %65 = call double @atan(double noundef %64) #8, !tbaa !48
  %66 = load ptr, ptr %7, align 8, !tbaa !43
  %67 = getelementptr inbounds nuw %"struct.(anonymous namespace)::pj_sconics_data", ptr %66, i32 0, i32 3
  %68 = load double, ptr %67, align 8, !tbaa !49
  %69 = fadd double %65, %68
  %70 = getelementptr inbounds nuw %struct.PJ_LP, ptr %4, i32 0, i32 1
  store double %69, ptr %70, align 8, !tbaa !70
  br label %90

71:                                               ; preds = %41
  %72 = load ptr, ptr %7, align 8, !tbaa !43
  %73 = getelementptr inbounds nuw %"struct.(anonymous namespace)::pj_sconics_data", ptr %72, i32 0, i32 3
  %74 = load double, ptr %73, align 8, !tbaa !49
  %75 = load double, ptr %8, align 8, !tbaa !51
  %76 = load ptr, ptr %7, align 8, !tbaa !43
  %77 = getelementptr inbounds nuw %"struct.(anonymous namespace)::pj_sconics_data", ptr %76, i32 0, i32 1
  %78 = load double, ptr %77, align 8, !tbaa !52
  %79 = fsub double %75, %78
  %80 = call double @atan(double noundef %79) #8, !tbaa !48
  %81 = fsub double %74, %80
  %82 = getelementptr inbounds nuw %struct.PJ_LP, ptr %4, i32 0, i32 1
  store double %81, ptr %82, align 8, !tbaa !70
  br label %90

83:                                               ; preds = %41
  %84 = load ptr, ptr %7, align 8, !tbaa !43
  %85 = getelementptr inbounds nuw %"struct.(anonymous namespace)::pj_sconics_data", ptr %84, i32 0, i32 1
  %86 = load double, ptr %85, align 8, !tbaa !52
  %87 = load double, ptr %8, align 8, !tbaa !51
  %88 = fsub double %86, %87
  %89 = getelementptr inbounds nuw %struct.PJ_LP, ptr %4, i32 0, i32 1
  store double %88, ptr %89, align 8, !tbaa !70
  br label %90

90:                                               ; preds = %83, %71, %55
  call void @llvm.lifetime.end.p0(i64 8, ptr %8) #8
  call void @llvm.lifetime.end.p0(i64 8, ptr %7) #8
  %91 = load { double, double }, ptr %4, align 8
  ret { double, double } %91
}