; Function Attrs: mustprogress nofree nounwind willreturn memory(readwrite, inaccessiblemem: write) uwtable
define internal { double, double } @_ZL17sconics_s_inverse5PJ_XYP8PJconsts(double %0, double %1, ptr noundef readonly captures(none) %2) #5 {
  %4 = getelementptr inbounds nuw i8, ptr %2, i64 88
  %5 = load ptr, ptr %4, align 8, !tbaa !40
  %6 = getelementptr inbounds nuw i8, ptr %5, i64 16
  %7 = load double, ptr %6, align 8, !tbaa !51
  %8 = fsub double %7, %1
  %9 = tail call double @hypot(double noundef %0, double noundef %8) #7, !tbaa !47
  %10 = load double, ptr %5, align 8, !tbaa !48
  %11 = fcmp olt double %10, 0.000000e+00
  %12 = fneg double %9
  %13 = fneg double %0
  %14 = fneg double %8
  %.sroa.5.0 = select i1 %11, double %14, double %8
  %.sroa.0.0 = select i1 %11, double %13, double %0
  %.0 = select i1 %11, double %12, double %9
  %15 = tail call double @atan2(double noundef %.sroa.0.0, double noundef %.sroa.5.0) #7, !tbaa !47
  %16 = getelementptr inbounds nuw i8, ptr %5, i64 48
  %17 = load i32, ptr %16, align 8, !tbaa !41
  switch i32 %17, label %37 [
    i32 4, label %18
    i32 2, label %29
  ]

18:                                               ; preds = %3
  %19 = getelementptr inbounds nuw i8, ptr %5, i64 32
  %20 = load double, ptr %19, align 8, !tbaa !53
  %21 = getelementptr inbounds nuw i8, ptr %5, i64 40
  %22 = load double, ptr %21, align 8, !tbaa !52
  %23 = fdiv double %.0, %22
  %24 = fsub double %20, %23
  %25 = tail call double @atan(double noundef %24) #7, !tbaa !47
  %26 = getelementptr inbounds nuw i8, ptr %5, i64 24
  %27 = load double, ptr %26, align 8, !tbaa !46
  %28 = fadd double %25, %27
  br label %41

29:                                               ; preds = %3
  %30 = getelementptr inbounds nuw i8, ptr %5, i64 24
  %31 = load double, ptr %30, align 8, !tbaa !46
  %32 = getelementptr inbounds nuw i8, ptr %5, i64 8
  %33 = load double, ptr %32, align 8, !tbaa !49
  %34 = fsub double %.0, %33
  %35 = tail call double @atan(double noundef %34) #7, !tbaa !47
  %36 = fsub double %31, %35
  br label %41

37:                                               ; preds = %3
  %38 = getelementptr inbounds nuw i8, ptr %5, i64 8
  %39 = load double, ptr %38, align 8, !tbaa !49
  %40 = fsub double %39, %.0
  br label %41

41:                                               ; preds = %37, %29, %18
  %.sroa.3.0 = phi double [ %40, %37 ], [ %36, %29 ], [ %28, %18 ]
  %42 = fdiv double %15, %10
  %.fca.0.insert = insertvalue { double, double } poison, double %42, 0
  %.fca.1.insert = insertvalue { double, double } %.fca.0.insert, double %.sroa.3.0, 1
  ret { double, double } %.fca.1.insert
}